target datalayout = "e-m:e-p270:32:32-p271:32:32-p272:64:64-i64:64-i128:128-f80:128-n8:16:32:64-S128"
target triple = "x86_64-pc-linux-gnu"

%struct.LogOpts = type { ptr, i8, i8, ptr, ptr, ptr, ptr, i8 }
%struct.DbInfo = type { i32, ptr, [1024 x i8], %struct.RelInfoArr, %struct.LogicalSlotInfoArr }
%struct.RelInfoArr = type { ptr, i32 }
%struct.LogicalSlotInfoArr = type { i32, ptr }
%struct.DataTypesUsageChecks = type { ptr, ptr, ptr, ptr, i32, ptr }
%struct.data_type_check_state = type { ptr, i8, ptr }

@.str.24 = private unnamed_addr constant [29 x i8] c"could not open file \22%s\22: %m\00", align 1
@.str.75 = private unnamed_addr constant [8 x i8] c"nspname\00", align 1
@.str.76 = private unnamed_addr constant [8 x i8] c"relname\00", align 1
@.str.77 = private unnamed_addr constant [8 x i8] c"attname\00", align 1
@.str.78 = private unnamed_addr constant [6 x i8] c"%s/%s\00", align 1
@log_opts = external global %struct.LogOpts, align 8
@.str.79 = private unnamed_addr constant [17 x i8] c"failed check: %s\00", align 1
@.str.80 = private unnamed_addr constant [14 x i8] c"\0A%s\0A%s    %s\0A\00", align 1
@.str.81 = private unnamed_addr constant [46 x i8] c"A list of the problem columns is in the file:\00", align 1
@.str.82 = private unnamed_addr constant [2 x i8] c"a\00", align 1
@.str.83 = private unnamed_addr constant [17 x i8] c"In database: %s\0A\00", align 1
@.str.84 = private unnamed_addr constant [12 x i8] c"  %s.%s.%s\0A\00", align 1

; Function Attrs: nounwind uwtable
define internal void @process_data_type_check(ptr noundef %0, ptr noundef %1, ptr noundef %2) #0 {
  %4 = alloca ptr, align 8
  %5 = alloca ptr, align 8
  %6 = alloca ptr, align 8
  %7 = alloca ptr, align 8
  %8 = alloca i32, align 4
  %9 = alloca [1024 x i8], align 16
  %10 = alloca i32, align 4
  %11 = alloca i32, align 4
  %12 = alloca i32, align 4
  %13 = alloca ptr, align 8
  %14 = alloca i32, align 4
  %15 = alloca i32, align 4
  store ptr %0, ptr %4, align 8
  store ptr %1, ptr %5, align 8
  store ptr %2, ptr %6, align 8
  call void @llvm.lifetime.start.p0(i64 8, ptr %7) #9
  %16 = load ptr, ptr %6, align 8
  store ptr %16, ptr %7, align 8
  call void @llvm.lifetime.start.p0(i64 4, ptr %8) #9
  %17 = load ptr, ptr %5, align 8
  %18 = call i32 @PQntuples(ptr noundef %17)
  store i32 %18, ptr %8, align 4
  call void @llvm.lifetime.start.p0(i64 1024, ptr %9) #9
  call void @llvm.lifetime.start.p0(i64 4, ptr %10) #9
  %19 = load ptr, ptr %5, align 8
  %20 = call i32 @PQfnumber(ptr noundef %19, ptr noundef @.str.75)
  store i32 %20, ptr %10, align 4
  call void @llvm.lifetime.start.p0(i64 4, ptr %11) #9
  %21 = load ptr, ptr %5, align 8
  %22 = call i32 @PQfnumber(ptr noundef %21, ptr noundef @.str.76)
  store i32 %22, ptr %11, align 4
  call void @llvm.lifetime.start.p0(i64 4, ptr %12) #9
  %23 = load ptr, ptr %5, align 8
  %24 = call i32 @PQfnumber(ptr noundef %23, ptr noundef @.str.77)
  store i32 %24, ptr %12, align 4
  call void @llvm.lifetime.start.p0(i64 8, ptr %13) #9
  store ptr null, ptr %13, align 8
  br label %25

25:                                               ; preds = %3
  br label %26

26:                                               ; preds = %25
  br label %27

27:                                               ; preds = %26
  %28 = load i32, ptr %8, align 4
  %29 = icmp eq i32 %28, 0
  br i1 %29, label %30, label %31

30:                                               ; preds = %27
  store i32 1, ptr %14, align 4
  br label %111

31:                                               ; preds = %27
  %32 = getelementptr inbounds [1024 x i8], ptr %9, i64 0, i64 0
  %33 = load ptr, ptr getelementptr inbounds nuw (%struct.LogOpts, ptr @log_opts, i32 0, i32 4), align 8
  %34 = load ptr, ptr %7, align 8
  %35 = getelementptr inbounds nuw %struct.data_type_check_state, ptr %34, i32 0, i32 0
  %36 = load ptr, ptr %35, align 8
  %37 = getelementptr inbounds nuw %struct.DataTypesUsageChecks, ptr %36, i32 0, i32 1
  %38 = load ptr, ptr %37, align 8
  %39 = call i32 (ptr, i64, ptr, ...) @pg_snprintf(ptr noundef %32, i64 noundef 1024, ptr noundef @.str.78, ptr noundef %33, ptr noundef %38)
  %40 = load ptr, ptr %7, align 8
  %41 = getelementptr inbounds nuw %struct.data_type_check_state, ptr %40, i32 0, i32 2
  %42 = load ptr, ptr %41, align 8
  %43 = load ptr, ptr %42, align 8
  %44 = icmp eq ptr %43, null
  br i1 %44, label %45, label %50

45:                                               ; preds = %31
  %46 = call ptr @createPQExpBuffer()
  %47 = load ptr, ptr %7, align 8
  %48 = getelementptr inbounds nuw %struct.data_type_check_state, ptr %47, i32 0, i32 2
  %49 = load ptr, ptr %48, align 8
  store ptr %46, ptr %49, align 8
  br label %50

50:                                               ; preds = %45, %31
  %51 = load ptr, ptr %7, align 8
  %52 = getelementptr inbounds nuw %struct.data_type_check_state, ptr %51, i32 0, i32 1
  %53 = load i8, ptr %52, align 8, !range !4, !noundef !5
  %54 = trunc i8 %53 to i1
  br i1 %54, label %71, label %55

55:                                               ; preds = %50
  %56 = load ptr, ptr %7, align 8
  %57 = getelementptr inbounds nuw %struct.data_type_check_state, ptr %56, i32 0, i32 0
  %58 = load ptr, ptr %57, align 8
  %59 = getelementptr inbounds nuw %struct.DataTypesUsageChecks, ptr %58, i32 0, i32 0
  %60 = load ptr, ptr %59, align 8
  call void (i32, ptr, ...) @pg_log(i32 noundef 3, ptr noundef @.str.79, ptr noundef %60)
  %61 = load ptr, ptr %7, align 8
  %62 = getelementptr inbounds nuw %struct.data_type_check_state, ptr %61, i32 0, i32 2
  %63 = load ptr, ptr %62, align 8
  %64 = load ptr, ptr %63, align 8
  %65 = load ptr, ptr %7, align 8
  %66 = getelementptr inbounds nuw %struct.data_type_check_state, ptr %65, i32 0, i32 0
  %67 = load ptr, ptr %66, align 8
  %68 = getelementptr inbounds nuw %struct.DataTypesUsageChecks, ptr %67, i32 0, i32 3
  %69 = load ptr, ptr %68, align 8
  %70 = getelementptr inbounds [1024 x i8], ptr %9, i64 0, i64 0
  call void (ptr, ptr, ...) @appendPQExpBuffer(ptr noundef %64, ptr noundef @.str.80, ptr noundef %69, ptr noundef @.str.81, ptr noundef %70)
  br label %71

71:                                               ; preds = %55, %50
  %72 = load ptr, ptr %7, align 8
  %73 = getelementptr inbounds nuw %struct.data_type_check_state, ptr %72, i32 0, i32 1
  store i8 1, ptr %73, align 8
  %74 = getelementptr inbounds [1024 x i8], ptr %9, i64 0, i64 0
  %75 = call noalias ptr @fopen(ptr noundef %74, ptr noundef @.str.82)
  store ptr %75, ptr %13, align 8
  %76 = icmp eq ptr %75, null
  br i1 %76, label %77, label %79

77:                                               ; preds = %71
  %78 = getelementptr inbounds [1024 x i8], ptr %9, i64 0, i64 0
  call void (ptr, ...) @pg_fatal(ptr noundef @.str.24, ptr noundef %78) #11
  unreachable

79:                                               ; preds = %71
  %80 = load ptr, ptr %13, align 8
  %81 = load ptr, ptr %4, align 8
  %82 = getelementptr inbounds nuw %struct.DbInfo, ptr %81, i32 0, i32 1
  %83 = load ptr, ptr %82, align 8
  %84 = call i32 (ptr, ptr, ...) @pg_fprintf(ptr noundef %80, ptr noundef @.str.83, ptr noundef %83)
  call void @llvm.lifetime.start.p0(i64 4, ptr %15) #9
  store i32 0, ptr %15, align 4
  br label %85

85:                                               ; preds = %105, %79
  %86 = load i32, ptr %15, align 4
  %87 = load i32, ptr %8, align 4
  %88 = icmp slt i32 %86, %87
  br i1 %88, label %90, label %89

89:                                               ; preds = %85
  store i32 4, ptr %14, align 4
  call void @llvm.lifetime.end.p0(i64 4, ptr %15) #9
  br label %108

90:                                               ; preds = %85
  %91 = load ptr, ptr %13, align 8
  %92 = load ptr, ptr %5, align 8
  %93 = load i32, ptr %15, align 4
  %94 = load i32, ptr %10, align 4
  %95 = call ptr @PQgetvalue(ptr noundef %92, i32 noundef %93, i32 noundef %94)
  %96 = load ptr, ptr %5, align 8
  %97 = load i32, ptr %15, align 4
  %98 = load i32, ptr %11, align 4
  %99 = call ptr @PQgetvalue(ptr noundef %96, i32 noundef %97, i32 noundef %98)
  %100 = load ptr, ptr %5, align 8
  %101 = load i32, ptr %15, align 4
  %102 = load i32, ptr %12, align 4
  %103 = call ptr @PQgetvalue(ptr noundef %100, i32 noundef %101, i32 noundef %102)
  %104 = call i32 (ptr, ptr, ...) @pg_fprintf(ptr noundef %91, ptr noundef @.str.84, ptr noundef %95, ptr noundef %99, ptr noundef %103)
  br label %105

105:                                              ; preds = %90
  %106 = load i32, ptr %15, align 4
  %107 = add i32 %106, 1
  store i32 %107, ptr %15, align 4
  br label %85, !llvm.loop !21

108:                                              ; preds = %89
  %109 = load ptr, ptr %13, align 8
  %110 = call i32 @fclose(ptr noundef %109)
  store i32 0, ptr %14, align 4
  br label %111

111:                                              ; preds = %108, %30
  call void @llvm.lifetime.end.p0(i64 8, ptr %13) #9
  call void @llvm.lifetime.end.p0(i64 4, ptr %12) #9
  call void @llvm.lifetime.end.p0(i64 4, ptr %11) #9
  call void @llvm.lifetime.end.p0(i64 4, ptr %10) #9
  call void @llvm.lifetime.end.p0(i64 1024, ptr %9) #9
  call void @llvm.lifetime.end.p0(i64 4, ptr %8) #9
  call void @llvm.lifetime.end.p0(i64 8, ptr %7) #9
  %112 = load i32, ptr %14, align 4
  switch i32 %112, label %114 [
    i32 0, label %113
    i32 1, label %113
  ]

113:                                              ; preds = %111, %111
  ret void

114:                                              ; preds = %111
  unreachable
}