; Function Attrs: nounwind uwtable
define internal void @process_data_type_check(ptr noundef readonly captures(none) %0, ptr noundef %1, ptr noundef captures(none) %2) #0 {
  %4 = alloca [1024 x i8], align 16
  %5 = tail call i32 @PQntuples(ptr noundef %1) #10
  call void @llvm.lifetime.start.p0(i64 1024, ptr nonnull %4) #10
  %6 = tail call i32 @PQfnumber(ptr noundef %1, ptr noundef nonnull @.str.75) #10
  %7 = tail call i32 @PQfnumber(ptr noundef %1, ptr noundef nonnull @.str.76) #10
  %8 = tail call i32 @PQfnumber(ptr noundef %1, ptr noundef nonnull @.str.77) #10
  %9 = icmp eq i32 %5, 0
  br i1 %9, label %50, label %10

10:                                               ; preds = %3
  %11 = load ptr, ptr getelementptr inbounds nuw (i8, ptr @log_opts, i64 24), align 8
  %12 = load ptr, ptr %2, align 8
  %13 = getelementptr inbounds nuw i8, ptr %12, i64 8
  %14 = load ptr, ptr %13, align 8
  %15 = call i32 (ptr, i64, ptr, ...) @pg_snprintf(ptr noundef nonnull %4, i64 noundef 1024, ptr noundef nonnull @.str.78, ptr noundef %11, ptr noundef %14) #10
  %16 = getelementptr inbounds nuw i8, ptr %2, i64 16
  %17 = load ptr, ptr %16, align 8
  %18 = load ptr, ptr %17, align 8
  %19 = icmp eq ptr %18, null
  br i1 %19, label %20, label %23

20:                                               ; preds = %10
  %21 = call ptr @createPQExpBuffer() #10
  %22 = load ptr, ptr %16, align 8
  store ptr %21, ptr %22, align 8
  br label %23

23:                                               ; preds = %20, %10
  %24 = getelementptr inbounds nuw i8, ptr %2, i64 8
  %25 = load i8, ptr %24, align 8, !range !4, !noundef !5
  %26 = trunc nuw i8 %25 to i1
  br i1 %26, label %35, label %27

27:                                               ; preds = %23
  %28 = load ptr, ptr %2, align 8
  %29 = load ptr, ptr %28, align 8
  call void (i32, ptr, ...) @pg_log(i32 noundef 3, ptr noundef nonnull @.str.79, ptr noundef %29) #10
  %30 = load ptr, ptr %16, align 8
  %31 = load ptr, ptr %30, align 8
  %32 = load ptr, ptr %2, align 8
  %33 = getelementptr inbounds nuw i8, ptr %32, i64 24
  %34 = load ptr, ptr %33, align 8
  call void (ptr, ptr, ...) @appendPQExpBuffer(ptr noundef %31, ptr noundef nonnull @.str.80, ptr noundef %34, ptr noundef nonnull @.str.81, ptr noundef nonnull %4) #10
  br label %35

35:                                               ; preds = %27, %23
  store i8 1, ptr %24, align 8
  %36 = call noalias ptr @fopen(ptr noundef nonnull %4, ptr noundef nonnull @.str.82)
  %37 = icmp eq ptr %36, null
  br i1 %37, label %38, label %39

38:                                               ; preds = %35
  call void (ptr, ...) @pg_fatal(ptr noundef nonnull @.str.24, ptr noundef nonnull %4) #12
  unreachable

39:                                               ; preds = %35
  %40 = getelementptr inbounds nuw i8, ptr %0, i64 8
  %41 = load ptr, ptr %40, align 8
  %42 = call i32 (ptr, ptr, ...) @pg_fprintf(ptr noundef nonnull %36, ptr noundef nonnull @.str.83, ptr noundef %41) #10
  %43 = icmp sgt i32 %5, 0
  br i1 %43, label %.lr.ph, label %._crit_edge

._crit_edge:                                      ; preds = %.lr.ph, %39
  %44 = call i32 @fclose(ptr noundef nonnull %36)
  br label %50

.lr.ph:                                           ; preds = %39, %.lr.ph
  %.031 = phi i32 [ %49, %.lr.ph ], [ 0, %39 ]
  %45 = call ptr @PQgetvalue(ptr noundef %1, i32 noundef %.031, i32 noundef %6) #10
  %46 = call ptr @PQgetvalue(ptr noundef %1, i32 noundef %.031, i32 noundef %7) #10
  %47 = call ptr @PQgetvalue(ptr noundef %1, i32 noundef %.031, i32 noundef %8) #10
  %48 = call i32 (ptr, ptr, ...) @pg_fprintf(ptr noundef nonnull %36, ptr noundef nonnull @.str.84, ptr noundef %45, ptr noundef %46, ptr noundef %47) #10
  %49 = add nuw nsw i32 %.031, 1
  %exitcond.not = icmp eq i32 %49, %5
  br i1 %exitcond.not, label %._crit_edge, label %.lr.ph, !llvm.loop !21

50:                                               ; preds = %3, %._crit_edge
  call void @llvm.lifetime.end.p0(i64 1024, ptr nonnull %4) #10
  ret void
}